SF:D:\rust\iris-engine\geometry\src\frustum.rs
FN:20,_RNvXNtCsiZ5B0Zwt1yr_8geometry7frustumNtB2_7FrustumNtNtCsdN0rXTyFgib_6approx11abs_diff_eq9AbsDiffEq15default_epsilon
FN:24,_RNvXNtCsiZ5B0Zwt1yr_8geometry7frustumNtB2_7FrustumNtNtCsdN0rXTyFgib_6approx11abs_diff_eq9AbsDiffEq11abs_diff_eq
FN:35,_RNvXs_NtCsiZ5B0Zwt1yr_8geometry7frustumNtB4_7FrustumNtNtCsdN0rXTyFgib_6approx11relative_eq10RelativeEq20default_max_relative
FN:39,_RNvXs_NtCsiZ5B0Zwt1yr_8geometry7frustumNtB4_7FrustumNtNtCsdN0rXTyFgib_6approx11relative_eq10RelativeEq11relative_eq
FN:56,_RNvMs0_NtCsiZ5B0Zwt1yr_8geometry7frustumNtB5_7Frustum3new
FN:75,_RNvMs0_NtCsiZ5B0Zwt1yr_8geometry7frustumNtB5_7Frustum14from_matrix_gl
FN:100,_RNvMs0_NtCsiZ5B0Zwt1yr_8geometry7frustumNtB5_7Frustum11from_matrix
FN:136,_RNvMs1_NtCsiZ5B0Zwt1yr_8geometry7frustumNtB5_18PerspectiveFrustum3new
FN:146,_RNvMs1_NtCsiZ5B0Zwt1yr_8geometry7frustumNtB5_18PerspectiveFrustum9matrix_lh
FN:150,_RNvMs1_NtCsiZ5B0Zwt1yr_8geometry7frustumNtB5_18PerspectiveFrustum9matrix_rh
FN:154,_RNvMs1_NtCsiZ5B0Zwt1yr_8geometry7frustumNtB5_18PerspectiveFrustum9matrix_gl
FN:158,_RNvMs1_NtCsiZ5B0Zwt1yr_8geometry7frustumNtB5_18PerspectiveFrustum18matrix_infinite_lh
FN:162,_RNvMs1_NtCsiZ5B0Zwt1yr_8geometry7frustumNtB5_18PerspectiveFrustum18matrix_infinite_rh
FN:166,_RNvMs1_NtCsiZ5B0Zwt1yr_8geometry7frustumNtB5_18PerspectiveFrustum18matrix_infinite_gl
FN:176,_RNvMs1_NtCsiZ5B0Zwt1yr_8geometry7frustumNtB5_18PerspectiveFrustum26matrix_infinite_reverse_lh
FN:180,_RNvMs1_NtCsiZ5B0Zwt1yr_8geometry7frustumNtB5_18PerspectiveFrustum26matrix_infinite_reverse_rh
FN:184,_RNvMs1_NtCsiZ5B0Zwt1yr_8geometry7frustumNtB5_18PerspectiveFrustum26matrix_infinite_reverse_gl
FN:194,_RNvMs1_NtCsiZ5B0Zwt1yr_8geometry7frustumNtB5_18PerspectiveFrustum14focal_distance
FN:199,_RNvMs1_NtCsiZ5B0Zwt1yr_8geometry7frustumNtB5_18PerspectiveFrustum7frustum
FN:235,_RNvNtCsiZ5B0Zwt1yr_8geometry7frustum22clip_projection_matrix
FN:271,_RNvMs2_NtCsiZ5B0Zwt1yr_8geometry7frustumNtB5_19OrthographicFrustum3new
FN:281,_RNvMs2_NtCsiZ5B0Zwt1yr_8geometry7frustumNtB5_19OrthographicFrustum9matrix_lh
FN:295,_RNvMs2_NtCsiZ5B0Zwt1yr_8geometry7frustumNtB5_19OrthographicFrustum9matrix_rh
FN:309,_RNvMs2_NtCsiZ5B0Zwt1yr_8geometry7frustumNtB5_19OrthographicFrustum9matrix_gl
FN:324,_RNvMs2_NtCsiZ5B0Zwt1yr_8geometry7frustumNtB5_19OrthographicFrustum7frustum
FN:367,_RNvNtNtCsiZ5B0Zwt1yr_8geometry7frustum5tests24projection_type_strategy
FN:417,_RNvNtNtCsiZ5B0Zwt1yr_8geometry7frustum5tests26__test_orthographic_frustum
FN:448,_RNvNtNtCsiZ5B0Zwt1yr_8geometry7frustum5tests25__test_perspective_frustum
FN:478,_RNvNtNtCsiZ5B0Zwt1yr_8geometry7frustum5tests34__test_perspective_infinite_frustum
FN:506,_RNvNtNtCsiZ5B0Zwt1yr_8geometry7frustum5tests42__test_perspective_infinite_reverse_frustum
FN:541,_RNvNtNtCsiZ5B0Zwt1yr_8geometry7frustum5testss_24test_near_plane_clipping
FNDA:0,_RNvXNtCsiZ5B0Zwt1yr_8geometry7frustumNtB2_7FrustumNtNtCsdN0rXTyFgib_6approx11abs_diff_eq9AbsDiffEq15default_epsilon
FNDA:0,_RNvXNtCsiZ5B0Zwt1yr_8geometry7frustumNtB2_7FrustumNtNtCsdN0rXTyFgib_6approx11abs_diff_eq9AbsDiffEq11abs_diff_eq
FNDA:0,_RNvXs_NtCsiZ5B0Zwt1yr_8geometry7frustumNtB4_7FrustumNtNtCsdN0rXTyFgib_6approx11relative_eq10RelativeEq20default_max_relative
FNDA:0,_RNvXs_NtCsiZ5B0Zwt1yr_8geometry7frustumNtB4_7FrustumNtNtCsdN0rXTyFgib_6approx11relative_eq10RelativeEq11relative_eq
FNDA:258,_RNvMs0_NtCsiZ5B0Zwt1yr_8geometry7frustumNtB5_7Frustum3new
FNDA:343,_RNvMs0_NtCsiZ5B0Zwt1yr_8geometry7frustumNtB5_7Frustum14from_matrix_gl
FNDA:692,_RNvMs0_NtCsiZ5B0Zwt1yr_8geometry7frustumNtB5_7Frustum11from_matrix
FNDA:777,_RNvMs1_NtCsiZ5B0Zwt1yr_8geometry7frustumNtB5_18PerspectiveFrustum3new
FNDA:81,_RNvMs1_NtCsiZ5B0Zwt1yr_8geometry7frustumNtB5_18PerspectiveFrustum9matrix_lh
FNDA:92,_RNvMs1_NtCsiZ5B0Zwt1yr_8geometry7frustumNtB5_18PerspectiveFrustum9matrix_rh
FNDA:85,_RNvMs1_NtCsiZ5B0Zwt1yr_8geometry7frustumNtB5_18PerspectiveFrustum9matrix_gl
FNDA:78,_RNvMs1_NtCsiZ5B0Zwt1yr_8geometry7frustumNtB5_18PerspectiveFrustum18matrix_infinite_lh
FNDA:83,_RNvMs1_NtCsiZ5B0Zwt1yr_8geometry7frustumNtB5_18PerspectiveFrustum18matrix_infinite_rh
FNDA:99,_RNvMs1_NtCsiZ5B0Zwt1yr_8geometry7frustumNtB5_18PerspectiveFrustum18matrix_infinite_gl
FNDA:93,_RNvMs1_NtCsiZ5B0Zwt1yr_8geometry7frustumNtB5_18PerspectiveFrustum26matrix_infinite_reverse_lh
FNDA:83,_RNvMs1_NtCsiZ5B0Zwt1yr_8geometry7frustumNtB5_18PerspectiveFrustum26matrix_infinite_reverse_rh
FNDA:83,_RNvMs1_NtCsiZ5B0Zwt1yr_8geometry7frustumNtB5_18PerspectiveFrustum26matrix_infinite_reverse_gl
FNDA:776,_RNvMs1_NtCsiZ5B0Zwt1yr_8geometry7frustumNtB5_18PerspectiveFrustum14focal_distance
FNDA:776,_RNvMs1_NtCsiZ5B0Zwt1yr_8geometry7frustumNtB5_18PerspectiveFrustum7frustum
FNDA:1,_RNvNtCsiZ5B0Zwt1yr_8geometry7frustum22clip_projection_matrix
FNDA:258,_RNvMs2_NtCsiZ5B0Zwt1yr_8geometry7frustumNtB5_19OrthographicFrustum3new
FNDA:89,_RNvMs2_NtCsiZ5B0Zwt1yr_8geometry7frustumNtB5_19OrthographicFrustum9matrix_lh
FNDA:92,_RNvMs2_NtCsiZ5B0Zwt1yr_8geometry7frustumNtB5_19OrthographicFrustum9matrix_rh
FNDA:77,_RNvMs2_NtCsiZ5B0Zwt1yr_8geometry7frustumNtB5_19OrthographicFrustum9matrix_gl
FNDA:258,_RNvMs2_NtCsiZ5B0Zwt1yr_8geometry7frustumNtB5_19OrthographicFrustum7frustum
FNDA:4,_RNvNtNtCsiZ5B0Zwt1yr_8geometry7frustum5tests24projection_type_strategy
FNDA:258,_RNvNtNtCsiZ5B0Zwt1yr_8geometry7frustum5tests26__test_orthographic_frustum
FNDA:258,_RNvNtNtCsiZ5B0Zwt1yr_8geometry7frustum5tests25__test_perspective_frustum
FNDA:259,_RNvNtNtCsiZ5B0Zwt1yr_8geometry7frustum5tests34__test_perspective_infinite_frustum
FNDA:259,_RNvNtNtCsiZ5B0Zwt1yr_8geometry7frustum5tests42__test_perspective_infinite_reverse_frustum
FNDA:1,_RNvNtNtCsiZ5B0Zwt1yr_8geometry7frustum5testss_24test_near_plane_clipping
FNF:31
FNH:27
DA:20,0
DA:21,0
DA:22,0
DA:24,0
DA:25,0
DA:26,0
DA:27,0
DA:28,0
DA:29,0
DA:30,0
DA:31,0
DA:35,0
DA:36,0
DA:37,0
DA:39,0
DA:40,0
DA:41,0
DA:42,0
DA:43,0
DA:44,0
DA:45,0
DA:46,0
DA:47,0
DA:48,0
DA:49,0
DA:50,0
DA:51,0
DA:56,258
DA:57,258
DA:58,258
DA:59,258
DA:60,258
DA:61,258
DA:62,258
DA:63,258
DA:64,258
DA:65,258
DA:66,258
DA:67,258
DA:68,258
DA:69,258
DA:70,258
DA:71,258
DA:72,258
DA:75,343
DA:76,343
DA:77,343
DA:78,343
DA:79,343
DA:80,83
DA:81,260
DA:82,343
DA:83,343
DA:84,343
DA:85,343
DA:86,343
DA:87,343
DA:88,343
DA:89,343
DA:90,343
DA:91,343
DA:92,343
DA:93,343
DA:94,343
DA:95,343
DA:96,343
DA:97,343
DA:98,343
DA:100,692
DA:101,692
DA:102,692
DA:103,692
DA:104,692
DA:105,176
DA:106,516
DA:107,692
DA:108,692
DA:109,692
DA:110,692
DA:111,692
DA:112,692
DA:113,692
DA:114,692
DA:115,692
DA:116,692
DA:117,692
DA:118,692
DA:119,692
DA:120,692
DA:121,692
DA:122,692
DA:123,692
DA:136,777
DA:137,777
DA:138,777
DA:139,777
DA:140,777
DA:141,777
DA:142,777
DA:143,777
DA:146,81
DA:147,81
DA:148,81
DA:150,92
DA:151,92
DA:152,92
DA:154,85
DA:155,85
DA:156,85
DA:158,78
DA:159,78
DA:160,78
DA:162,83
DA:163,83
DA:164,83
DA:166,99
DA:167,99
DA:168,99
DA:169,99
DA:170,99
DA:171,99
DA:172,99
DA:173,99
DA:174,99
DA:176,93
DA:177,93
DA:178,93
DA:180,83
DA:181,83
DA:182,83
DA:184,83
DA:185,83
DA:186,83
DA:187,83
DA:188,83
DA:189,83
DA:190,83
DA:191,83
DA:192,83
DA:194,776
DA:195,776
DA:196,776
DA:199,776
DA:200,776
DA:201,776
DA:202,776
DA:203,776
DA:204,776
DA:205,776
DA:206,776
DA:207,776
DA:208,776
DA:209,776
DA:210,776
DA:211,776
DA:212,776
DA:213,776
DA:214,776
DA:215,776
DA:216,776
DA:217,776
DA:218,776
DA:219,776
DA:220,776
DA:221,776
DA:222,776
DA:223,776
DA:224,776
DA:225,776
DA:226,776
DA:227,776
DA:228,776
DA:229,776
DA:230,776
DA:231,776
DA:235,1
DA:236,1
DA:237,1
DA:238,1
DA:239,1
DA:240,1
DA:241,1
DA:242,1
DA:243,1
DA:244,1
DA:245,1
DA:246,1
DA:247,1
DA:248,1
DA:249,1
DA:250,1
DA:251,1
DA:252,1
DA:253,1
DA:254,1
DA:255,1
DA:256,1
DA:257,1
DA:258,1
DA:259,1
DA:271,258
DA:272,258
DA:273,258
DA:274,258
DA:275,258
DA:276,258
DA:277,258
DA:278,258
DA:281,89
DA:282,89
DA:283,89
DA:284,89
DA:285,89
DA:286,89
DA:287,89
DA:288,89
DA:289,89
DA:290,89
DA:291,89
DA:292,89
DA:293,89
DA:295,92
DA:296,92
DA:297,92
DA:298,92
DA:299,92
DA:300,92
DA:301,92
DA:302,92
DA:303,92
DA:304,92
DA:305,92
DA:306,92
DA:307,92
DA:309,77
DA:310,77
DA:311,77
DA:312,77
DA:313,77
DA:314,77
DA:315,77
DA:316,77
DA:317,77
DA:318,77
DA:319,77
DA:320,77
DA:321,77
DA:324,258
DA:325,258
DA:326,258
DA:327,258
DA:328,258
DA:329,258
DA:330,258
DA:331,258
DA:332,258
DA:333,258
DA:334,258
DA:336,258
DA:337,258
DA:338,258
DA:339,258
DA:340,258
DA:341,258
DA:342,258
DA:343,258
DA:344,258
DA:345,258
DA:367,4
DA:368,4
DA:369,4
DA:370,4
DA:371,4
DA:372,4
DA:373,4
DA:417,258
DA:418,258
DA:419,258
DA:420,258
DA:421,258
DA:422,258
DA:423,258
DA:424,258
DA:425,258
DA:426,89
DA:427,92
DA:428,77
DA:431,258
DA:432,258
DA:433,258
DA:434,258
DA:435,258
DA:436,258
DA:437,258
DA:438,258
DA:439,258
DA:440,258
DA:441,258
DA:442,258
DA:443,258
DA:444,258
DA:445,258
DA:446,258
DA:447,258
DA:448,258
DA:449,258
DA:450,258
DA:451,258
DA:452,258
DA:453,258
DA:454,258
DA:455,258
DA:456,258
DA:457,81
DA:458,92
DA:459,85
DA:461,258
DA:462,258
DA:463,258
DA:464,258
DA:465,258
DA:466,258
DA:467,258
DA:468,258
DA:469,258
DA:470,258
DA:471,258
DA:472,258
DA:473,258
DA:474,258
DA:475,258
DA:476,258
DA:478,259
DA:479,259
DA:480,259
DA:481,259
DA:482,259
DA:483,259
DA:484,259
DA:485,259
DA:486,78
DA:487,83
DA:488,98
DA:490,259
DA:491,259
DA:492,259
DA:493,259
DA:494,259
DA:495,259
DA:496,259
DA:497,259
DA:498,259
DA:499,259
DA:500,259
DA:501,259
DA:502,259
DA:503,259
DA:504,259
DA:506,259
DA:507,259
DA:508,259
DA:509,259
DA:510,259
DA:511,259
DA:512,259
DA:513,259
DA:515,93
DA:518,83
DA:521,83
DA:524,259
DA:525,259
DA:526,259
DA:527,259
DA:528,259
DA:529,259
DA:530,259
DA:531,259
DA:532,259
DA:533,259
DA:534,259
DA:535,259
DA:536,259
DA:537,259
DA:538,259
DA:541,1
DA:542,1
DA:543,1
DA:544,1
DA:545,1
DA:546,1
DA:547,1
DA:548,1
DA:549,1
DA:550,1
DA:551,1
DA:552,1
DA:553,1
DA:554,1
BRF:0
BRH:0
LF:398
LH:371
end_of_record
SF:D:\rust\iris-engine\geometry\src\intersections.rs
FN:97,_RNvMNtCsiZ5B0Zwt1yr_8geometry13intersectionsNtNtB4_4line3Ray19intersect_ellipsoid
FN:124,_RNCNvMNtCsiZ5B0Zwt1yr_8geometry13intersectionsNtNtB6_4line3Ray19intersect_ellipsoid0B6_
FN:133,_RNvMNtCsiZ5B0Zwt1yr_8geometry13intersectionsNtNtB4_4line3Ray18intersect_cylinder
FN:153,_RNCNvMNtCsiZ5B0Zwt1yr_8geometry13intersectionsNtNtB6_4line3Ray18intersect_cylinder0B6_
FN:165,_RNvMNtCsiZ5B0Zwt1yr_8geometry13intersectionsNtNtB4_4line3Ray15intersect_torus
FN:199,_RNCNvMNtCsiZ5B0Zwt1yr_8geometry13intersectionsNtNtB6_4line3Ray15intersect_torus0B6_
FN:229,_RNCNvNtNtCsiZ5B0Zwt1yr_8geometry13intersections5tests10any_normals_0B7_
FN:13,_RNvMNtCsiZ5B0Zwt1yr_8geometry13intersectionsNtNtB4_4line3Ray15intersect_plane
FN:33,_RNvMNtCsiZ5B0Zwt1yr_8geometry13intersectionsNtNtB4_4line3Ray18intersect_triangle
FN:47,_RNvMNtCsiZ5B0Zwt1yr_8geometry13intersectionsNtNtB4_4line3Ray16intersect_cuboid
FN:81,_RNvMNtCsiZ5B0Zwt1yr_8geometry13intersectionsNtNtB4_4line3Ray16intersect_sphere
FN:294,_RNvNtNtCsiZ5B0Zwt1yr_8geometry13intersections5tests21__test_intersect_plane
FN:303,_RNvNtNtCsiZ5B0Zwt1yr_8geometry13intersections5tests24__test_intersect_triangle
FN:314,_RNvNtNtCsiZ5B0Zwt1yr_8geometry13intersections5tests22__test_intersect_cuboid
FN:321,_RNvNtNtCsiZ5B0Zwt1yr_8geometry13intersections5tests22__test_intersect_sphere
FNDA:0,_RNvMNtCsiZ5B0Zwt1yr_8geometry13intersectionsNtNtB4_4line3Ray19intersect_ellipsoid
FNDA:0,_RNCNvMNtCsiZ5B0Zwt1yr_8geometry13intersectionsNtNtB6_4line3Ray19intersect_ellipsoid0B6_
FNDA:0,_RNvMNtCsiZ5B0Zwt1yr_8geometry13intersectionsNtNtB4_4line3Ray18intersect_cylinder
FNDA:0,_RNCNvMNtCsiZ5B0Zwt1yr_8geometry13intersectionsNtNtB6_4line3Ray18intersect_cylinder0B6_
FNDA:0,_RNvMNtCsiZ5B0Zwt1yr_8geometry13intersectionsNtNtB4_4line3Ray15intersect_torus
FNDA:0,_RNCNvMNtCsiZ5B0Zwt1yr_8geometry13intersectionsNtNtB6_4line3Ray15intersect_torus0B6_
FNDA:1325,_RNCNvNtNtCsiZ5B0Zwt1yr_8geometry13intersections5tests10any_normals_0B7_
FNDA:1213,_RNvMNtCsiZ5B0Zwt1yr_8geometry13intersectionsNtNtB4_4line3Ray15intersect_plane
FNDA:281,_RNvMNtCsiZ5B0Zwt1yr_8geometry13intersectionsNtNtB4_4line3Ray18intersect_triangle
FNDA:265,_RNvMNtCsiZ5B0Zwt1yr_8geometry13intersectionsNtNtB4_4line3Ray16intersect_cuboid
FNDA:286,_RNvMNtCsiZ5B0Zwt1yr_8geometry13intersectionsNtNtB4_4line3Ray16intersect_sphere
FNDA:265,_RNvNtNtCsiZ5B0Zwt1yr_8geometry13intersections5tests21__test_intersect_plane
FNDA:265,_RNvNtNtCsiZ5B0Zwt1yr_8geometry13intersections5tests24__test_intersect_triangle
FNDA:265,_RNvNtNtCsiZ5B0Zwt1yr_8geometry13intersections5tests22__test_intersect_cuboid
FNDA:265,_RNvNtNtCsiZ5B0Zwt1yr_8geometry13intersections5tests22__test_intersect_sphere
FNF:15
FNH:9
DA:13,1213
DA:14,1213
DA:15,1213
DA:16,1213
DA:17,1213
DA:19,1
DA:21,1212
DA:22,1212
DA:23,1212
DA:24,1212
DA:25,487
DA:26,487
DA:28,725
DA:31,1213
DA:33,281
DA:34,281
DA:35,281
DA:37,281
DA:39,143
DA:40,16
DA:41,127
DA:42,138
DA:43,265
DA:44,281
DA:47,265
DA:48,265
DA:49,265
DA:50,265
DA:51,265
DA:52,265
DA:53,265
DA:54,265
DA:55,265
DA:56,132
DA:57,133
DA:58,133
DA:59,133
DA:60,265
DA:61,134
DA:62,134
DA:63,131
DA:64,131
DA:65,265
DA:66,133
DA:67,133
DA:68,132
DA:69,132
DA:70,599
DA:71,534
DA:72,211
DA:73,200
DA:74,11
DA:75,323
DA:78,65
DA:79,265
DA:81,286
DA:82,286
DA:83,286
DA:84,286
DA:85,286
DA:86,286
DA:87,286
DA:88,286
DA:89,286
DA:90,93
DA:91,72
DA:92,21
DA:93,21
DA:94,286
DA:97,0
DA:98,0
DA:99,0
DA:100,0
DA:101,0
DA:102,0
DA:103,0
DA:104,0
DA:105,0
DA:106,0
DA:107,0
DA:108,0
DA:109,0
DA:110,0
DA:111,0
DA:112,0
DA:113,0
DA:114,0
DA:115,0
DA:116,0
DA:117,0
DA:118,0
DA:119,0
DA:120,0
DA:121,0
DA:122,0
DA:123,0
DA:124,0
DA:125,0
DA:127,0
DA:128,0
DA:133,0
DA:134,0
DA:135,0
DA:136,0
DA:137,0
DA:138,0
DA:139,0
DA:140,0
DA:141,0
DA:142,0
DA:143,0
DA:144,0
DA:145,0
DA:146,0
DA:147,0
DA:148,0
DA:149,0
DA:150,0
DA:151,0
DA:152,0
DA:153,0
DA:154,0
DA:155,0
DA:156,0
DA:157,0
DA:158,0
DA:159,0
DA:160,0
DA:165,0
DA:166,0
DA:167,0
DA:168,0
DA:169,0
DA:170,0
DA:171,0
DA:172,0
DA:173,0
DA:174,0
DA:175,0
DA:176,0
DA:177,0
DA:178,0
DA:179,0
DA:180,0
DA:181,0
DA:182,0
DA:183,0
DA:184,0
DA:185,0
DA:186,0
DA:187,0
DA:188,0
DA:189,0
DA:190,0
DA:191,0
DA:192,0
DA:193,0
DA:194,0
DA:195,0
DA:196,0
DA:197,0
DA:198,0
DA:199,0
DA:200,0
DA:201,0
DA:202,0
DA:229,1325
DA:294,265
DA:295,265
DA:296,133
DA:297,133
DA:298,133
DA:299,133
DA:300,133
DA:301,132
DA:302,265
DA:303,265
DA:304,265
DA:305,16
DA:306,16
DA:307,16
DA:308,16
DA:309,16
DA:310,16
DA:311,16
DA:312,249
DA:313,265
DA:314,265
DA:315,265
DA:316,200
DA:317,200
DA:318,200
DA:319,65
DA:320,265
DA:321,265
DA:322,265
DA:323,21
DA:324,21
DA:326,21
DA:327,21
DA:328,21
DA:329,244
DA:330,265
BRF:0
BRH:0
LF:206
LH:106
end_of_record
SF:D:\rust\iris-engine\geometry\src\lib.rs
FN:18,_RNvCsiZ5B0Zwt1yr_8geometry7refract
FN:12,_RNvCsiZ5B0Zwt1yr_8geometry7reflect
FN:61,_RNvNtCsiZ5B0Zwt1yr_8geometry5tests13__test_reflect
FNDA:0,_RNvCsiZ5B0Zwt1yr_8geometry7refract
FNDA:257,_RNvCsiZ5B0Zwt1yr_8geometry7reflect
FNDA:257,_RNvNtCsiZ5B0Zwt1yr_8geometry5tests13__test_reflect
FNF:3
FNH:2
DA:12,257
DA:13,257
DA:14,257
DA:18,0
DA:19,0
DA:20,0
DA:21,0
DA:22,0
DA:23,0
DA:61,257
DA:62,257
DA:63,257
DA:64,257
DA:65,257
DA:66,257
BRF:0
BRH:0
LF:15
LH:9
end_of_record
SF:D:\rust\iris-engine\geometry\src\line.rs
FN:84,_RNCNvNtNtCsiZ5B0Zwt1yr_8geometry4line5tests10any_normals_0B7_
FN:111,_RNvNtNtCsiZ5B0Zwt1yr_8geometry4line5tests19__test_closest_point
FN:120,_RNvNtNtCsiZ5B0Zwt1yr_8geometry4line5tests23__test_distance_to_point
FN:40,_RNvMNtCsiZ5B0Zwt1yr_8geometry4lineNtB2_3Ray16distance_to_line
FN:11,_RNvMNtCsiZ5B0Zwt1yr_8geometry4lineNtB2_3Ray3new
FN:19,_RNvMNtCsiZ5B0Zwt1yr_8geometry4lineNtB2_3Ray5point
FN:24,_RNvMNtCsiZ5B0Zwt1yr_8geometry4lineNtB2_3Ray17distance_to_point
FN:30,_RNvMNtCsiZ5B0Zwt1yr_8geometry4lineNtB2_3Ray16closest_point_to
FN:35,_RNvMNtCsiZ5B0Zwt1yr_8geometry4lineNtB2_3Ray12closest_t_to
FNDA:522,_RNCNvNtNtCsiZ5B0Zwt1yr_8geometry4line5tests10any_normals_0B7_
FNDA:261,_RNvNtNtCsiZ5B0Zwt1yr_8geometry4line5tests19__test_closest_point
FNDA:261,_RNvNtNtCsiZ5B0Zwt1yr_8geometry4line5tests23__test_distance_to_point
FNDA:0,_RNvMNtCsiZ5B0Zwt1yr_8geometry4lineNtB2_3Ray16distance_to_line
FNDA:2024,_RNvMNtCsiZ5B0Zwt1yr_8geometry4lineNtB2_3Ray3new
FNDA:1552,_RNvMNtCsiZ5B0Zwt1yr_8geometry4lineNtB2_3Ray5point
FNDA:631,_RNvMNtCsiZ5B0Zwt1yr_8geometry4lineNtB2_3Ray17distance_to_point
FNDA:261,_RNvMNtCsiZ5B0Zwt1yr_8geometry4lineNtB2_3Ray16closest_point_to
FNDA:522,_RNvMNtCsiZ5B0Zwt1yr_8geometry4lineNtB2_3Ray12closest_t_to
FNF:9
FNH:8
DA:11,2024
DA:12,2024
DA:13,2024
DA:14,2024
DA:15,2024
DA:16,2024
DA:19,1552
DA:20,1552
DA:21,1552
DA:24,631
DA:25,631
DA:26,631
DA:27,631
DA:30,261
DA:31,261
DA:32,261
DA:33,261
DA:35,522
DA:36,522
DA:37,522
DA:40,0
DA:41,0
DA:42,0
DA:43,0
DA:44,0
DA:45,0
DA:46,0
DA:47,0
DA:48,0
DA:49,0
DA:50,0
DA:52,0
DA:55,0
DA:56,0
DA:57,0
DA:58,0
DA:59,0
DA:60,0
DA:62,0
DA:84,522
DA:111,261
DA:112,261
DA:113,261
DA:114,261
DA:115,261
DA:116,261
DA:117,261
DA:118,261
DA:119,261
DA:120,261
DA:121,261
DA:122,261
DA:123,261
DA:124,261
DA:125,261
DA:126,261
DA:127,261
DA:128,261
DA:129,261
BRF:0
BRH:0
LF:59
LH:40
end_of_record
SF:D:\rust\iris-engine\geometry\src\plane.rs
FN:19,_RNvXNtCsiZ5B0Zwt1yr_8geometry5planeNtB2_5PlaneNtNtCsdN0rXTyFgib_6approx11abs_diff_eq9AbsDiffEq11abs_diff_eq
FN:75,_RNvMs0_NtCsiZ5B0Zwt1yr_8geometry5planeNtB5_5Plane11is_on_plane
FN:127,_RNCNvNtNtCsiZ5B0Zwt1yr_8geometry5plane5tests10any_normals_0B7_
FN:160,_RNvNtNtCsiZ5B0Zwt1yr_8geometry5plane5tests23__test_distance_to_point
FN:166,_RNvNtNtCsiZ5B0Zwt1yr_8geometry5plane5tests28__test_intersect_three_planes
FN:173,_RNvNtNtCsiZ5B0Zwt1yr_8geometry5plane5tests26__test_intersect_two_planes
FN:15,_RNvXNtCsiZ5B0Zwt1yr_8geometry5planeNtB2_5PlaneNtNtCsdN0rXTyFgib_6approx11abs_diff_eq9AbsDiffEq15default_epsilon
FN:26,_RNvXs_NtCsiZ5B0Zwt1yr_8geometry5planeNtB4_5PlaneNtNtCsdN0rXTyFgib_6approx11relative_eq10RelativeEq20default_max_relative
FN:30,_RNvXs_NtCsiZ5B0Zwt1yr_8geometry5planeNtB4_5PlaneNtNtCsdN0rXTyFgib_6approx11relative_eq10RelativeEq11relative_eq
FN:46,_RNvMs0_NtCsiZ5B0Zwt1yr_8geometry5planeNtB5_5Plane3new
FN:54,_RNvMs0_NtCsiZ5B0Zwt1yr_8geometry5planeNtB5_5Plane9from_vec4
FN:65,_RNvMs0_NtCsiZ5B0Zwt1yr_8geometry5planeNtB5_5Plane11homogeneous
FN:69,_RNvMs0_NtCsiZ5B0Zwt1yr_8geometry5planeNtB5_5Plane24signed_distance_to_point
FN:80,_RNvMs0_NtCsiZ5B0Zwt1yr_8geometry5planeNtB5_5Plane24intersection_with_planes
FN:93,_RNvMs0_NtCsiZ5B0Zwt1yr_8geometry5planeNtB5_5Plane23intersection_with_plane
FN:100,_RNCNvMs0_NtCsiZ5B0Zwt1yr_8geometry5planeNtB7_5Plane23intersection_with_plane0B9_
FNDA:0,_RNvXNtCsiZ5B0Zwt1yr_8geometry5planeNtB2_5PlaneNtNtCsdN0rXTyFgib_6approx11abs_diff_eq9AbsDiffEq11abs_diff_eq
FNDA:0,_RNvMs0_NtCsiZ5B0Zwt1yr_8geometry5planeNtB5_5Plane11is_on_plane
FNDA:1360,_RNCNvNtNtCsiZ5B0Zwt1yr_8geometry5plane5tests10any_normals_0B7_
FNDA:272,_RNvNtNtCsiZ5B0Zwt1yr_8geometry5plane5tests23__test_distance_to_point
FNDA:272,_RNvNtNtCsiZ5B0Zwt1yr_8geometry5plane5tests28__test_intersect_three_planes
FNDA:272,_RNvNtNtCsiZ5B0Zwt1yr_8geometry5plane5tests26__test_intersect_two_planes
FNDA:5687,_RNvXNtCsiZ5B0Zwt1yr_8geometry5planeNtB2_5PlaneNtNtCsdN0rXTyFgib_6approx11abs_diff_eq9AbsDiffEq15default_epsilon
FNDA:5687,_RNvXs_NtCsiZ5B0Zwt1yr_8geometry5planeNtB4_5PlaneNtNtCsdN0rXTyFgib_6approx11relative_eq10RelativeEq20default_max_relative
FNDA:5687,_RNvXs_NtCsiZ5B0Zwt1yr_8geometry5planeNtB4_5PlaneNtNtCsdN0rXTyFgib_6approx11relative_eq10RelativeEq11relative_eq
FNDA:9988,_RNvMs0_NtCsiZ5B0Zwt1yr_8geometry5planeNtB5_5Plane3new
FNDA:6211,_RNvMs0_NtCsiZ5B0Zwt1yr_8geometry5planeNtB5_5Plane9from_vec4
FNDA:3521,_RNvMs0_NtCsiZ5B0Zwt1yr_8geometry5planeNtB5_5Plane11homogeneous
FNDA:2307,_RNvMs0_NtCsiZ5B0Zwt1yr_8geometry5planeNtB5_5Plane24signed_distance_to_point
FNDA:544,_RNvMs0_NtCsiZ5B0Zwt1yr_8geometry5planeNtB5_5Plane24intersection_with_planes
FNDA:272,_RNvMs0_NtCsiZ5B0Zwt1yr_8geometry5planeNtB5_5Plane23intersection_with_plane
FNDA:272,_RNCNvMs0_NtCsiZ5B0Zwt1yr_8geometry5planeNtB7_5Plane23intersection_with_plane0B9_
FNF:16
FNH:14
DA:15,5687
DA:16,5687
DA:17,5687
DA:19,0
DA:20,0
DA:21,0
DA:22,0
DA:26,5687
DA:27,5687
DA:28,5687
DA:30,5687
DA:31,5687
DA:32,5687
DA:33,5687
DA:34,5687
DA:35,5687
DA:36,5687
DA:37,5687
DA:38,5687
DA:39,5687
DA:40,5687
DA:41,5687
DA:46,9988
DA:47,9988
DA:48,9988
DA:49,9988
DA:50,9988
DA:51,9988
DA:52,9988
DA:54,6211
DA:55,6211
DA:56,6211
DA:57,6211
DA:58,6211
DA:59,6211
DA:60,6211
DA:61,6211
DA:62,6211
DA:65,3521
DA:66,3521
DA:67,3521
DA:69,2307
DA:70,2307
DA:71,2307
DA:72,2307
DA:73,2307
DA:75,0
DA:76,0
DA:77,0
DA:80,544
DA:81,544
DA:82,544
DA:83,544
DA:84,544
DA:85,544
DA:86,6
DA:88,538
DA:89,538
DA:91,544
DA:93,272
DA:94,272
DA:95,272
DA:96,272
DA:97,272
DA:98,272
DA:99,272
DA:100,272
DA:101,272
DA:127,1360
DA:160,272
DA:161,272
DA:162,272
DA:163,272
DA:164,272
DA:166,272
DA:167,272
DA:168,266
DA:169,266
DA:170,266
DA:171,6
DA:172,272
DA:173,272
DA:174,272
DA:175,272
DA:176,272
DA:177,272
DA:178,272
DA:179,272
DA:180,0
DA:181,272
BRF:0
BRH:0
LF:91
LH:83
end_of_record
SF:D:\rust\iris-engine\geometry\src\root_finding.rs
FN:116,_RNCNvNtNtCsiZ5B0Zwt1yr_8geometry12root_finding5tests12__test_linear0B7_
FN:126,_RNCNvNtNtCsiZ5B0Zwt1yr_8geometry12root_finding5tests15__test_quadratic0B7_
FN:138,_RNCNvNtNtCsiZ5B0Zwt1yr_8geometry12root_finding5tests11__test_cubic0B7_
FN:150,_RNCNvNtNtCsiZ5B0Zwt1yr_8geometry12root_finding5tests13__test_quartic0B7_
FN:162,_RNCNvNtNtCsiZ5B0Zwt1yr_8geometry12root_finding5testss_18test_newton_method0B7_
FN:163,_RNCNvNtNtCsiZ5B0Zwt1yr_8geometry12root_finding5testss_18test_newton_methods_0B7_
FN:169,_RNCNvNtNtCsiZ5B0Zwt1yr_8geometry12root_finding5testss_34test_newton_method_with_derivative0B7_
FN:113,_RNvNtNtCsiZ5B0Zwt1yr_8geometry12root_finding5tests12__test_linear
FN:123,_RNvNtNtCsiZ5B0Zwt1yr_8geometry12root_finding5tests15__test_quadratic
FN:136,_RNvNtNtCsiZ5B0Zwt1yr_8geometry12root_finding5tests11__test_cubic
FN:148,_RNvNtNtCsiZ5B0Zwt1yr_8geometry12root_finding5tests13__test_quartic
FN:161,_RNvNtNtCsiZ5B0Zwt1yr_8geometry12root_finding5testss_18test_newton_method
FN:168,_RNvNtNtCsiZ5B0Zwt1yr_8geometry12root_finding5testss_34test_newton_method_with_derivative
FN:5,_RINvNtCsiZ5B0Zwt1yr_8geometry12root_finding12roots_to_vecdEB4_
FN:5,_RINvNtCsiZ5B0Zwt1yr_8geometry12root_finding12roots_to_vecfEB4_
FN:17,_RINvNtCsiZ5B0Zwt1yr_8geometry12root_finding12solve_lineardEB4_
FN:24,_RINvNtCsiZ5B0Zwt1yr_8geometry12root_finding15solve_quadraticdEB4_
FN:24,_RINvNtCsiZ5B0Zwt1yr_8geometry12root_finding15solve_quadraticfEB4_
FN:31,_RINvNtCsiZ5B0Zwt1yr_8geometry12root_finding11solve_cubicdEB4_
FN:38,_RINvNtCsiZ5B0Zwt1yr_8geometry12root_finding13solve_quarticdEB4_
FN:43,_RINvNtCsiZ5B0Zwt1yr_8geometry12root_finding29newton_method_with_derivativeNCNvNtB2_5testss_18test_newton_method0NCB1c_s_0EB4_
FN:55,_RINvNtCsiZ5B0Zwt1yr_8geometry12root_finding13newton_methodNCNvNtB2_5testss_34test_newton_method_with_derivative0EB4_
FNDA:263,_RNCNvNtNtCsiZ5B0Zwt1yr_8geometry12root_finding5tests12__test_linear0B7_
FNDA:324,_RNCNvNtNtCsiZ5B0Zwt1yr_8geometry12root_finding5tests15__test_quadratic0B7_
FNDA:373,_RNCNvNtNtCsiZ5B0Zwt1yr_8geometry12root_finding5tests11__test_cubic0B7_
FNDA:430,_RNCNvNtNtCsiZ5B0Zwt1yr_8geometry12root_finding5tests13__test_quartic0B7_
FNDA:21,_RNCNvNtNtCsiZ5B0Zwt1yr_8geometry12root_finding5testss_18test_newton_method0B7_
FNDA:20,_RNCNvNtNtCsiZ5B0Zwt1yr_8geometry12root_finding5testss_18test_newton_methods_0B7_
FNDA:61,_RNCNvNtNtCsiZ5B0Zwt1yr_8geometry12root_finding5testss_34test_newton_method_with_derivative0B7_
FNDA:263,_RNvNtNtCsiZ5B0Zwt1yr_8geometry12root_finding5tests12__test_linear
FNDA:263,_RNvNtNtCsiZ5B0Zwt1yr_8geometry12root_finding5tests15__test_quadratic
FNDA:263,_RNvNtNtCsiZ5B0Zwt1yr_8geometry12root_finding5tests11__test_cubic
FNDA:263,_RNvNtNtCsiZ5B0Zwt1yr_8geometry12root_finding5tests13__test_quartic
FNDA:1,_RNvNtNtCsiZ5B0Zwt1yr_8geometry12root_finding5testss_18test_newton_method
FNDA:1,_RNvNtNtCsiZ5B0Zwt1yr_8geometry12root_finding5testss_34test_newton_method_with_derivative
FNDA:1052,_RINvNtCsiZ5B0Zwt1yr_8geometry12root_finding12roots_to_vecdEB4_
FNDA:286,_RINvNtCsiZ5B0Zwt1yr_8geometry12root_finding12roots_to_vecfEB4_
FNDA:263,_RINvNtCsiZ5B0Zwt1yr_8geometry12root_finding12solve_lineardEB4_
FNDA:263,_RINvNtCsiZ5B0Zwt1yr_8geometry12root_finding15solve_quadraticdEB4_
FNDA:286,_RINvNtCsiZ5B0Zwt1yr_8geometry12root_finding15solve_quadraticfEB4_
FNDA:263,_RINvNtCsiZ5B0Zwt1yr_8geometry12root_finding11solve_cubicdEB4_
FNDA:263,_RINvNtCsiZ5B0Zwt1yr_8geometry12root_finding13solve_quarticdEB4_
FNDA:1,_RINvNtCsiZ5B0Zwt1yr_8geometry12root_finding29newton_method_with_derivativeNCNvNtB2_5testss_18test_newton_method0NCB1c_s_0EB4_
FNDA:1,_RINvNtCsiZ5B0Zwt1yr_8geometry12root_finding13newton_methodNCNvNtB2_5testss_34test_newton_method_with_derivative0EB4_
FNF:20
FNH:20
DA:5,1338
DA:6,1338
DA:7,353
DA:8,471
DA:9,448
DA:10,55
DA:11,11
DA:13,1338
DA:17,263
DA:18,263
DA:19,263
DA:20,263
DA:24,549
DA:25,549
DA:26,549
DA:27,549
DA:31,263
DA:32,263
DA:33,263
DA:34,263
DA:38,263
DA:39,263
DA:40,263
DA:41,263
DA:43,1
DA:44,1
DA:45,1
DA:46,1
DA:47,1
DA:48,1
DA:49,1
DA:50,20
DA:51,20
DA:52,20
DA:53,1
DA:54,1
DA:55,1
DA:56,1
DA:57,1
DA:58,20
DA:59,20
DA:60,20
DA:61,20
DA:62,1
DA:63,1
DA:113,263
DA:114,263
DA:115,263
DA:116,263
DA:118,526
DA:119,263
DA:121,263
DA:123,263
DA:124,263
DA:125,263
DA:126,324
DA:127,324
DA:128,324
DA:129,324
DA:130,587
DA:131,324
DA:133,263
DA:136,263
DA:137,263
DA:138,373
DA:139,373
DA:140,373
DA:141,373
DA:142,373
DA:143,636
DA:144,373
DA:146,263
DA:148,263
DA:149,263
DA:150,430
DA:151,430
DA:152,430
DA:153,430
DA:154,430
DA:155,430
DA:156,693
DA:157,430
DA:159,263
DA:161,1
DA:162,21
DA:163,20
DA:164,1
DA:165,1
DA:166,1
DA:168,1
DA:169,61
DA:170,1
DA:171,1
DA:172,1
BRF:0
BRH:0
LF:101
LH:101
end_of_record
SF:D:\rust\iris-engine\geometry\src\shapes.rs
FN:76,_RNvMs0_NtCsiZ5B0Zwt1yr_8geometry6shapesNtB5_6Sphere6normal
FN:89,_RNvMs1_NtCsiZ5B0Zwt1yr_8geometry6shapesNtB5_9Ellipsoid3new
FN:97,_RNvMs1_NtCsiZ5B0Zwt1yr_8geometry6shapesNtB5_9Ellipsoid6normal
FN:115,_RNvMs2_NtCsiZ5B0Zwt1yr_8geometry6shapesNtB5_8Cylinder3new
FN:124,_RNvMs2_NtCsiZ5B0Zwt1yr_8geometry6shapesNtB5_8Cylinder6normal
FN:147,_RNvMs3_NtCsiZ5B0Zwt1yr_8geometry6shapesNtB5_5Torus3new
FN:155,_RNvMs3_NtCsiZ5B0Zwt1yr_8geometry6shapesNtB5_5Torus6normal
FN:13,_RNvMNtCsiZ5B0Zwt1yr_8geometry6shapesNtB2_8Triangle3new
FN:17,_RNvMNtCsiZ5B0Zwt1yr_8geometry6shapesNtB2_8Triangle6normal
FN:21,_RNvMNtCsiZ5B0Zwt1yr_8geometry6shapesNtB2_8Triangle18is_inside_triangle
FN:44,_RNvMs_NtCsiZ5B0Zwt1yr_8geometry6shapesNtB4_6Cuboid3new
FN:48,_RNvMs_NtCsiZ5B0Zwt1yr_8geometry6shapesNtB4_6Cuboid19is_point_on_surface
FN:57,_RNvMs_NtCsiZ5B0Zwt1yr_8geometry6shapesNtB4_6Cuboid15is_point_inside
FN:71,_RNvMs0_NtCsiZ5B0Zwt1yr_8geometry6shapesNtB5_6Sphere3new
FNDA:0,_RNvMs0_NtCsiZ5B0Zwt1yr_8geometry6shapesNtB5_6Sphere6normal
FNDA:0,_RNvMs1_NtCsiZ5B0Zwt1yr_8geometry6shapesNtB5_9Ellipsoid3new
FNDA:0,_RNvMs1_NtCsiZ5B0Zwt1yr_8geometry6shapesNtB5_9Ellipsoid6normal
FNDA:0,_RNvMs2_NtCsiZ5B0Zwt1yr_8geometry6shapesNtB5_8Cylinder3new
FNDA:0,_RNvMs2_NtCsiZ5B0Zwt1yr_8geometry6shapesNtB5_8Cylinder6normal
FNDA:0,_RNvMs3_NtCsiZ5B0Zwt1yr_8geometry6shapesNtB5_5Torus3new
FNDA:0,_RNvMs3_NtCsiZ5B0Zwt1yr_8geometry6shapesNtB5_5Torus6normal
FNDA:265,_RNvMNtCsiZ5B0Zwt1yr_8geometry6shapesNtB2_8Triangle3new
FNDA:297,_RNvMNtCsiZ5B0Zwt1yr_8geometry6shapesNtB2_8Triangle6normal
FNDA:159,_RNvMNtCsiZ5B0Zwt1yr_8geometry6shapesNtB2_8Triangle18is_inside_triangle
FNDA:265,_RNvMs_NtCsiZ5B0Zwt1yr_8geometry6shapesNtB4_6Cuboid3new
FNDA:200,_RNvMs_NtCsiZ5B0Zwt1yr_8geometry6shapesNtB4_6Cuboid19is_point_on_surface
FNDA:411,_RNvMs_NtCsiZ5B0Zwt1yr_8geometry6shapesNtB4_6Cuboid15is_point_inside
FNDA:265,_RNvMs0_NtCsiZ5B0Zwt1yr_8geometry6shapesNtB5_6Sphere3new
FNF:14
FNH:7
DA:13,265
DA:14,265
DA:15,265
DA:17,297
DA:18,297
DA:19,297
DA:21,159
DA:22,159
DA:23,159
DA:24,159
DA:25,159
DA:26,159
DA:27,159
DA:28,159
DA:29,159
DA:30,159
DA:31,159
DA:32,159
DA:33,159
DA:34,159
DA:44,265
DA:45,265
DA:46,265
DA:48,200
DA:49,200
DA:50,131
DA:51,95
DA:52,62
DA:53,44
DA:54,12
DA:55,200
DA:57,411
DA:58,411
DA:59,185
DA:60,79
DA:61,411
DA:71,265
DA:72,265
DA:73,265
DA:76,0
DA:77,0
DA:78,0
DA:89,0
DA:90,0
DA:91,0
DA:92,0
DA:93,0
DA:94,0
DA:97,0
DA:98,0
DA:99,0
DA:100,0
DA:101,0
DA:102,0
DA:103,0
DA:115,0
DA:116,0
DA:117,0
DA:118,0
DA:119,0
DA:120,0
DA:121,0
DA:124,0
DA:125,0
DA:126,0
DA:127,0
DA:128,0
DA:129,0
DA:130,0
DA:131,0
DA:133,0
DA:136,0
DA:147,0
DA:148,0
DA:149,0
DA:150,0
DA:151,0
DA:152,0
DA:155,0
DA:156,0
DA:157,0
DA:158,0
DA:159,0
DA:160,0
DA:161,0
DA:162,0
BRF:0
BRH:0
LF:86
LH:39
end_of_record